target datalayout = "e-m:e-p270:32:32-p271:32:32-p272:64:64-i64:64-i128:128-f80:128-n8:16:32:64-S128"
target triple = "x86_64-pc-linux-gnu"

%struct.H5VL_get_connector_ud_t = type { %struct.H5PL_vol_key_t, i64 }
%struct.H5PL_vol_key_t = type { i32, %union.anon.5 }
%union.anon.5 = type { ptr }
%struct.H5VL_class_t = type { i32, i32, ptr, i32, i64, ptr, ptr, %struct.H5VL_info_class_t, %struct.H5VL_wrap_class_t, %struct.H5VL_attr_class_t, %struct.H5VL_dataset_class_t, %struct.H5VL_datatype_class_t, %struct.H5VL_file_class_t, %struct.H5VL_group_class_t, %struct.H5VL_link_class_t, %struct.H5VL_object_class_t, %struct.H5VL_introspect_class_t, %struct.H5VL_request_class_t, %struct.H5VL_blob_class_t, %struct.H5VL_token_class_t, ptr }
%struct.H5VL_info_class_t = type { i64, ptr, ptr, ptr, ptr, ptr }
%struct.H5VL_wrap_class_t = type { ptr, ptr, ptr, ptr, ptr }
%struct.H5VL_attr_class_t = type { ptr, ptr, ptr, ptr, ptr, ptr, ptr, ptr }
%struct.H5VL_dataset_class_t = type { ptr, ptr, ptr, ptr, ptr, ptr, ptr, ptr }
%struct.H5VL_datatype_class_t = type { ptr, ptr, ptr, ptr, ptr, ptr }
%struct.H5VL_file_class_t = type { ptr, ptr, ptr, ptr, ptr, ptr }
%struct.H5VL_group_class_t = type { ptr, ptr, ptr, ptr, ptr, ptr }
%struct.H5VL_link_class_t = type { ptr, ptr, ptr, ptr, ptr, ptr }
%struct.H5VL_object_class_t = type { ptr, ptr, ptr, ptr, ptr }
%struct.H5VL_introspect_class_t = type { ptr, ptr, ptr }
%struct.H5VL_request_class_t = type { ptr, ptr, ptr, ptr, ptr, ptr }
%struct.H5VL_blob_class_t = type { ptr, ptr, ptr, ptr }
%struct.H5VL_token_class_t = type { ptr, ptr, ptr }

@.str.2 = private unnamed_addr constant [101 x i8] c"generated/home/dtcxzyw/WorkSpace/Projects/compilers/llvm-opt-benchmark/bench/hdf5/hdf5/src/H5VLint.c\00", align 1
@H5E_VOL_g = external global i64, align 8
@H5E_CANTINC_g = external global i64, align 8
@H5E_CANTREGISTER_g = external global i64, align 8
@.str.44 = private unnamed_addr constant [47 x i8] c"unable to increment ref count on VOL connector\00", align 1
@__func__.H5VL__register_connector_by_class = private unnamed_addr constant [34 x i8] c"H5VL__register_connector_by_class\00", align 1
@H5E_ARGS_g = external global i64, align 8
@H5E_UNINITIALIZED_g = external global i64, align 8
@.str.59 = private unnamed_addr constant [43 x i8] c"VOL connector class pointer cannot be NULL\00", align 1
@.str.60 = private unnamed_addr constant [39 x i8] c"VOL connector has incompatible version\00", align 1
@.str.61 = private unnamed_addr constant [52 x i8] c"VOL connector class name cannot be the NULL pointer\00", align 1
@.str.62 = private unnamed_addr constant [52 x i8] c"VOL connector class name cannot be the empty string\00", align 1
@.str.63 = private unnamed_addr constant [95 x i8] c"VOL connector must provide free callback for VOL info objects when a copy callback is provided\00", align 1
@.str.64 = private unnamed_addr constant [102 x i8] c"VOL connector must provide free callback for object wrapping contexts when a get callback is provided\00", align 1
@H5E_BADITER_g = external global i64, align 8
@.str.65 = private unnamed_addr constant [27 x i8] c"can't iterate over VOL IDs\00", align 1
@.str.66 = private unnamed_addr constant [33 x i8] c"unable to register VOL connector\00", align 1

; Function Attrs: nounwind uwtable
define i64 @H5VL__register_connector_by_class(ptr noundef %0, i1 noundef zeroext %1, i64 noundef %2) #0 {
  %4 = alloca ptr, align 8
  %5 = alloca i8, align 1
  %6 = alloca i64, align 8
  %7 = alloca %struct.H5VL_get_connector_ud_t, align 8
  %8 = alloca i64, align 8
  %9 = alloca i8, align 1
  store ptr %0, ptr %4, align 8
  %10 = zext i1 %1 to i8
  store i8 %10, ptr %5, align 1
  store i64 %2, ptr %6, align 8
  store i64 -1, ptr %8, align 8
  store i8 0, ptr %9, align 1
  %11 = load ptr, ptr %4, align 8
  %12 = icmp ne ptr %11, null
  br i1 %12, label %28, label %13

13:                                               ; preds = %3
  br label %14

14:                                               ; preds = %13
  br label %15

15:                                               ; preds = %14
  br label %16

16:                                               ; preds = %15
  %17 = load i64, ptr @H5E_ARGS_g, align 8
  %18 = load i64, ptr @H5E_UNINITIALIZED_g, align 8
  %19 = call i32 (ptr, ptr, i32, i64, i64, ptr, ...) @H5E_printf_stack(ptr noundef @.str.2, ptr noundef @__func__.H5VL__register_connector_by_class, i32 noundef 1233, i64 noundef %17, i64 noundef %18, ptr noundef @.str.59)
  br label %20

20:                                               ; preds = %16
  store i8 1, ptr %9, align 1
  %21 = load i8, ptr %9, align 1
  %22 = trunc i8 %21 to i1
  %23 = zext i1 %22 to i8
  store i8 %23, ptr %9, align 1
  br label %24

24:                                               ; preds = %20
  br label %25

25:                                               ; preds = %24
  store i64 -1, ptr %8, align 8
  br label %222

26:                                               ; No predecessors!
  br label %27

27:                                               ; preds = %26
  br label %28

28:                                               ; preds = %27, %3
  %29 = load ptr, ptr %4, align 8
  %30 = getelementptr inbounds %struct.H5VL_class_t, ptr %29, i32 0, i32 0
  %31 = load i32, ptr %30, align 8
  %32 = icmp ne i32 3, %31
  br i1 %32, label %33, label %48

33:                                               ; preds = %28
  br label %34

34:                                               ; preds = %33
  br label %35

35:                                               ; preds = %34
  br label %36

36:                                               ; preds = %35
  %37 = load i64, ptr @H5E_VOL_g, align 8
  %38 = load i64, ptr @H5E_CANTREGISTER_g, align 8
  %39 = call i32 (ptr, ptr, i32, i64, i64, ptr, ...) @H5E_printf_stack(ptr noundef @.str.2, ptr noundef @__func__.H5VL__register_connector_by_class, i32 noundef 1235, i64 noundef %37, i64 noundef %38, ptr noundef @.str.60)
  br label %40

40:                                               ; preds = %36
  store i8 1, ptr %9, align 1
  %41 = load i8, ptr %9, align 1
  %42 = trunc i8 %41 to i1
  %43 = zext i1 %42 to i8
  store i8 %43, ptr %9, align 1
  br label %44

44:                                               ; preds = %40
  br label %45

45:                                               ; preds = %44
  store i64 -1, ptr %8, align 8
  br label %222

46:                                               ; No predecessors!
  br label %47

47:                                               ; preds = %46
  br label %48

48:                                               ; preds = %47, %28
  %49 = load ptr, ptr %4, align 8
  %50 = getelementptr inbounds %struct.H5VL_class_t, ptr %49, i32 0, i32 2
  %51 = load ptr, ptr %50, align 8
  %52 = icmp ne ptr %51, null
  br i1 %52, label %68, label %53

53:                                               ; preds = %48
  br label %54

54:                                               ; preds = %53
  br label %55

55:                                               ; preds = %54
  br label %56

56:                                               ; preds = %55
  %57 = load i64, ptr @H5E_VOL_g, align 8
  %58 = load i64, ptr @H5E_CANTREGISTER_g, align 8
  %59 = call i32 (ptr, ptr, i32, i64, i64, ptr, ...) @H5E_printf_stack(ptr noundef @.str.2, ptr noundef @__func__.H5VL__register_connector_by_class, i32 noundef 1238, i64 noundef %57, i64 noundef %58, ptr noundef @.str.61)
  br label %60

60:                                               ; preds = %56
  store i8 1, ptr %9, align 1
  %61 = load i8, ptr %9, align 1
  %62 = trunc i8 %61 to i1
  %63 = zext i1 %62 to i8
  store i8 %63, ptr %9, align 1
  br label %64

64:                                               ; preds = %60
  br label %65

65:                                               ; preds = %64
  store i64 -1, ptr %8, align 8
  br label %222

66:                                               ; No predecessors!
  br label %67

67:                                               ; preds = %66
  br label %68

68:                                               ; preds = %67, %48
  %69 = load ptr, ptr %4, align 8
  %70 = getelementptr inbounds %struct.H5VL_class_t, ptr %69, i32 0, i32 2
  %71 = load ptr, ptr %70, align 8
  %72 = call i64 @strlen(ptr noundef %71) #6
  %73 = icmp eq i64 0, %72
  br i1 %73, label %74, label %89

74:                                               ; preds = %68
  br label %75

75:                                               ; preds = %74
  br label %76

76:                                               ; preds = %75
  br label %77

77:                                               ; preds = %76
  %78 = load i64, ptr @H5E_VOL_g, align 8
  %79 = load i64, ptr @H5E_CANTREGISTER_g, align 8
  %80 = call i32 (ptr, ptr, i32, i64, i64, ptr, ...) @H5E_printf_stack(ptr noundef @.str.2, ptr noundef @__func__.H5VL__register_connector_by_class, i32 noundef 1241, i64 noundef %78, i64 noundef %79, ptr noundef @.str.62)
  br label %81

81:                                               ; preds = %77
  store i8 1, ptr %9, align 1
  %82 = load i8, ptr %9, align 1
  %83 = trunc i8 %82 to i1
  %84 = zext i1 %83 to i8
  store i8 %84, ptr %9, align 1
  br label %85

85:                                               ; preds = %81
  br label %86

86:                                               ; preds = %85
  store i64 -1, ptr %8, align 8
  br label %222

87:                                               ; No predecessors!
  br label %88

88:                                               ; preds = %87
  br label %89

89:                                               ; preds = %88, %68
  %90 = load ptr, ptr %4, align 8
  %91 = getelementptr inbounds %struct.H5VL_class_t, ptr %90, i32 0, i32 7
  %92 = getelementptr inbounds %struct.H5VL_info_class_t, ptr %91, i32 0, i32 1
  %93 = load ptr, ptr %92, align 8
  %94 = icmp ne ptr %93, null
  br i1 %94, label %95, label %116

95:                                               ; preds = %89
  %96 = load ptr, ptr %4, align 8
  %97 = getelementptr inbounds %struct.H5VL_class_t, ptr %96, i32 0, i32 7
  %98 = getelementptr inbounds %struct.H5VL_info_class_t, ptr %97, i32 0, i32 3
  %99 = load ptr, ptr %98, align 8
  %100 = icmp ne ptr %99, null
  br i1 %100, label %116, label %101

101:                                              ; preds = %95
  br label %102

102:                                              ; preds = %101
  br label %103

103:                                              ; preds = %102
  br label %104

104:                                              ; preds = %103
  %105 = load i64, ptr @H5E_VOL_g, align 8
  %106 = load i64, ptr @H5E_CANTREGISTER_g, align 8
  %107 = call i32 (ptr, ptr, i32, i64, i64, ptr, ...) @H5E_printf_stack(ptr noundef @.str.2, ptr noundef @__func__.H5VL__register_connector_by_class, i32 noundef 1245, i64 noundef %105, i64 noundef %106, ptr noundef @.str.63)
  br label %108

108:                                              ; preds = %104
  store i8 1, ptr %9, align 1
  %109 = load i8, ptr %9, align 1
  %110 = trunc i8 %109 to i1
  %111 = zext i1 %110 to i8
  store i8 %111, ptr %9, align 1
  br label %112

112:                                              ; preds = %108
  br label %113

113:                                              ; preds = %112
  store i64 -1, ptr %8, align 8
  br label %222

114:                                              ; No predecessors!
  br label %115

115:                                              ; preds = %114
  br label %116

116:                                              ; preds = %115, %95, %89
  %117 = load ptr, ptr %4, align 8
  %118 = getelementptr inbounds %struct.H5VL_class_t, ptr %117, i32 0, i32 8
  %119 = getelementptr inbounds %struct.H5VL_wrap_class_t, ptr %118, i32 0, i32 1
  %120 = load ptr, ptr %119, align 8
  %121 = icmp ne ptr %120, null
  br i1 %121, label %122, label %143

122:                                              ; preds = %116
  %123 = load ptr, ptr %4, align 8
  %124 = getelementptr inbounds %struct.H5VL_class_t, ptr %123, i32 0, i32 8
  %125 = getelementptr inbounds %struct.H5VL_wrap_class_t, ptr %124, i32 0, i32 4
  %126 = load ptr, ptr %125, align 8
  %127 = icmp ne ptr %126, null
  br i1 %127, label %143, label %128

128:                                              ; preds = %122
  br label %129

129:                                              ; preds = %128
  br label %130

130:                                              ; preds = %129
  br label %131

131:                                              ; preds = %130
  %132 = load i64, ptr @H5E_VOL_g, align 8
  %133 = load i64, ptr @H5E_CANTREGISTER_g, align 8
  %134 = call i32 (ptr, ptr, i32, i64, i64, ptr, ...) @H5E_printf_stack(ptr noundef @.str.2, ptr noundef @__func__.H5VL__register_connector_by_class, i32 noundef 1249, i64 noundef %132, i64 noundef %133, ptr noundef @.str.64)
  br label %135

135:                                              ; preds = %131
  store i8 1, ptr %9, align 1
  %136 = load i8, ptr %9, align 1
  %137 = trunc i8 %136 to i1
  %138 = zext i1 %137 to i8
  store i8 %138, ptr %9, align 1
  br label %139

139:                                              ; preds = %135
  br label %140

140:                                              ; preds = %139
  store i64 -1, ptr %8, align 8
  br label %222

141:                                              ; No predecessors!
  br label %142

142:                                              ; preds = %141
  br label %143

143:                                              ; preds = %142, %122, %116
  %144 = getelementptr inbounds %struct.H5VL_get_connector_ud_t, ptr %7, i32 0, i32 0
  %145 = getelementptr inbounds %struct.H5PL_vol_key_t, ptr %144, i32 0, i32 0
  store i32 0, ptr %145, align 8
  %146 = load ptr, ptr %4, align 8
  %147 = getelementptr inbounds %struct.H5VL_class_t, ptr %146, i32 0, i32 2
  %148 = load ptr, ptr %147, align 8
  %149 = getelementptr inbounds %struct.H5VL_get_connector_ud_t, ptr %7, i32 0, i32 0
  %150 = getelementptr inbounds %struct.H5PL_vol_key_t, ptr %149, i32 0, i32 1
  store ptr %148, ptr %150, align 8
  %151 = getelementptr inbounds %struct.H5VL_get_connector_ud_t, ptr %7, i32 0, i32 1
  store i64 -1, ptr %151, align 8
  %152 = call i32 @H5I_iterate(i32 noundef 9, ptr noundef @H5VL__get_connector_cb, ptr noundef %7, i1 noundef zeroext true)
  %153 = icmp slt i32 %152, 0
  br i1 %153, label %154, label %169

154:                                              ; preds = %143
  br label %155

155:                                              ; preds = %154
  br label %156

156:                                              ; preds = %155
  br label %157

157:                                              ; preds = %156
  %158 = load i64, ptr @H5E_VOL_g, align 8
  %159 = load i64, ptr @H5E_BADITER_g, align 8
  %160 = call i32 (ptr, ptr, i32, i64, i64, ptr, ...) @H5E_printf_stack(ptr noundef @.str.2, ptr noundef @__func__.H5VL__register_connector_by_class, i32 noundef 1258, i64 noundef %158, i64 noundef %159, ptr noundef @.str.65)
  br label %161

161:                                              ; preds = %157
  store i8 1, ptr %9, align 1
  %162 = load i8, ptr %9, align 1
  %163 = trunc i8 %162 to i1
  %164 = zext i1 %163 to i8
  store i8 %164, ptr %9, align 1
  br label %165

165:                                              ; preds = %161
  br label %166

166:                                              ; preds = %165
  store i64 -1, ptr %8, align 8
  br label %222

167:                                              ; No predecessors!
  br label %168

168:                                              ; preds = %167
  br label %169

169:                                              ; preds = %168, %143
  %170 = getelementptr inbounds %struct.H5VL_get_connector_ud_t, ptr %7, i32 0, i32 1
  %171 = load i64, ptr %170, align 8
  %172 = icmp ne i64 %171, -1
  br i1 %172, label %173, label %198

173:                                              ; preds = %169
  %174 = getelementptr inbounds %struct.H5VL_get_connector_ud_t, ptr %7, i32 0, i32 1
  %175 = load i64, ptr %174, align 8
  %176 = load i8, ptr %5, align 1
  %177 = trunc i8 %176 to i1
  %178 = call i32 @H5I_inc_ref(i64 noundef %175, i1 noundef zeroext %177)
  %179 = icmp slt i32 %178, 0
  br i1 %179, label %180, label %195

180:                                              ; preds = %173
  br label %181

181:                                              ; preds = %180
  br label %182

182:                                              ; preds = %181
  br label %183

183:                                              ; preds = %182
  %184 = load i64, ptr @H5E_VOL_g, align 8
  %185 = load i64, ptr @H5E_CANTINC_g, align 8
  %186 = call i32 (ptr, ptr, i32, i64, i64, ptr, ...) @H5E_printf_stack(ptr noundef @.str.2, ptr noundef @__func__.H5VL__register_connector_by_class, i32 noundef 1264, i64 noundef %184, i64 noundef %185, ptr noundef @.str.44)
  br label %187

187:                                              ; preds = %183
  store i8 1, ptr %9, align 1
  %188 = load i8, ptr %9, align 1
  %189 = trunc i8 %188 to i1
  %190 = zext i1 %189 to i8
  store i8 %190, ptr %9, align 1
  br label %191

191:                                              ; preds = %187
  br label %192

192:                                              ; preds = %191
  store i64 -1, ptr %8, align 8
  br label %222

193:                                              ; No predecessors!
  br label %194

194:                                              ; preds = %193
  br label %195

195:                                              ; preds = %194, %173
  %196 = getelementptr inbounds %struct.H5VL_get_connector_ud_t, ptr %7, i32 0, i32 1
  %197 = load i64, ptr %196, align 8
  store i64 %197, ptr %8, align 8
  br label %221

198:                                              ; preds = %169
  %199 = load ptr, ptr %4, align 8
  %200 = load i8, ptr %5, align 1
  %201 = trunc i8 %200 to i1
  %202 = load i64, ptr %6, align 8
  %203 = call i64 @H5VL__register_connector(ptr noundef %199, i1 noundef zeroext %201, i64 noundef %202)
  store i64 %203, ptr %8, align 8
  %204 = icmp slt i64 %203, 0
  br i1 %204, label %205, label %220

205:                                              ; preds = %198
  br label %206

206:                                              ; preds = %205
  br label %207

207:                                              ; preds = %206
  br label %208

208:                                              ; preds = %207
  %209 = load i64, ptr @H5E_VOL_g, align 8
  %210 = load i64, ptr @H5E_CANTREGISTER_g, align 8
  %211 = call i32 (ptr, ptr, i32, i64, i64, ptr, ...) @H5E_printf_stack(ptr noundef @.str.2, ptr noundef @__func__.H5VL__register_connector_by_class, i32 noundef 1270, i64 noundef %209, i64 noundef %210, ptr noundef @.str.66)
  br label %212

212:                                              ; preds = %208
  store i8 1, ptr %9, align 1
  %213 = load i8, ptr %9, align 1
  %214 = trunc i8 %213 to i1
  %215 = zext i1 %214 to i8
  store i8 %215, ptr %9, align 1
  br label %216

216:                                              ; preds = %212
  br label %217

217:                                              ; preds = %216
  store i64 -1, ptr %8, align 8
  br label %222

218:                                              ; No predecessors!
  br label %219

219:                                              ; preds = %218
  br label %220

220:                                              ; preds = %219, %198
  br label %221

221:                                              ; preds = %220, %195
  br label %222

222:                                              ; preds = %221, %217, %192, %166, %140, %113, %86, %65, %45, %25
  %223 = load i64, ptr %8, align 8
  ret i64 %223
}