; Function Attrs: nounwind uwtable
define i64 @H5VL__register_connector_by_class(ptr noundef readonly %0, i1 noundef zeroext %1, i64 noundef %2) local_unnamed_addr #0 {
  %4 = alloca %struct.H5VL_get_connector_ud_t, align 8
  %.not = icmp eq ptr %0, null
  br i1 %.not, label %5, label %9

5:                                                ; preds = %3
  %6 = load i64, ptr @H5E_ARGS_g, align 8
  %7 = load i64, ptr @H5E_UNINITIALIZED_g, align 8
  %8 = tail call i32 (ptr, ptr, i32, i64, i64, ptr, ...) @H5E_printf_stack(ptr noundef nonnull @.str.2, ptr noundef nonnull @__func__.H5VL__register_connector_by_class, i32 noundef 1233, i64 noundef %6, i64 noundef %7, ptr noundef nonnull @.str.59) #10
  br label %75

9:                                                ; preds = %3
  %10 = load i32, ptr %0, align 8
  %.not26 = icmp eq i32 %10, 3
  br i1 %.not26, label %15, label %11

11:                                               ; preds = %9
  %12 = load i64, ptr @H5E_VOL_g, align 8
  %13 = load i64, ptr @H5E_CANTREGISTER_g, align 8
  %14 = tail call i32 (ptr, ptr, i32, i64, i64, ptr, ...) @H5E_printf_stack(ptr noundef nonnull @.str.2, ptr noundef nonnull @__func__.H5VL__register_connector_by_class, i32 noundef 1235, i64 noundef %12, i64 noundef %13, ptr noundef nonnull @.str.60) #10
  br label %75

15:                                               ; preds = %9
  %16 = getelementptr inbounds i8, ptr %0, i64 8
  %17 = load ptr, ptr %16, align 8
  %.not27 = icmp eq ptr %17, null
  br i1 %.not27, label %18, label %22

18:                                               ; preds = %15
  %19 = load i64, ptr @H5E_VOL_g, align 8
  %20 = load i64, ptr @H5E_CANTREGISTER_g, align 8
  %21 = tail call i32 (ptr, ptr, i32, i64, i64, ptr, ...) @H5E_printf_stack(ptr noundef nonnull @.str.2, ptr noundef nonnull @__func__.H5VL__register_connector_by_class, i32 noundef 1238, i64 noundef %19, i64 noundef %20, ptr noundef nonnull @.str.61) #10
  br label %75

22:                                               ; preds = %15
  %char0 = load i8, ptr %17, align 1
  %23 = icmp eq i8 %char0, 0
  br i1 %23, label %24, label %28

24:                                               ; preds = %22
  %25 = load i64, ptr @H5E_VOL_g, align 8
  %26 = load i64, ptr @H5E_CANTREGISTER_g, align 8
  %27 = tail call i32 (ptr, ptr, i32, i64, i64, ptr, ...) @H5E_printf_stack(ptr noundef nonnull @.str.2, ptr noundef nonnull @__func__.H5VL__register_connector_by_class, i32 noundef 1241, i64 noundef %25, i64 noundef %26, ptr noundef nonnull @.str.62) #10
  br label %75

28:                                               ; preds = %22
  %29 = getelementptr inbounds i8, ptr %0, i64 56
  %30 = load ptr, ptr %29, align 8
  %.not28 = icmp eq ptr %30, null
  br i1 %.not28, label %38, label %31

31:                                               ; preds = %28
  %32 = getelementptr inbounds i8, ptr %0, i64 72
  %33 = load ptr, ptr %32, align 8
  %.not29 = icmp eq ptr %33, null
  br i1 %.not29, label %34, label %38

34:                                               ; preds = %31
  %35 = load i64, ptr @H5E_VOL_g, align 8
  %36 = load i64, ptr @H5E_CANTREGISTER_g, align 8
  %37 = tail call i32 (ptr, ptr, i32, i64, i64, ptr, ...) @H5E_printf_stack(ptr noundef nonnull @.str.2, ptr noundef nonnull @__func__.H5VL__register_connector_by_class, i32 noundef 1245, i64 noundef %35, i64 noundef %36, ptr noundef nonnull @.str.63) #10
  br label %75

38:                                               ; preds = %31, %28
  %39 = getelementptr inbounds i8, ptr %0, i64 104
  %40 = load ptr, ptr %39, align 8
  %.not30 = icmp eq ptr %40, null
  br i1 %.not30, label %48, label %41

41:                                               ; preds = %38
  %42 = getelementptr inbounds i8, ptr %0, i64 128
  %43 = load ptr, ptr %42, align 8
  %.not31 = icmp eq ptr %43, null
  br i1 %.not31, label %44, label %48

44:                                               ; preds = %41
  %45 = load i64, ptr @H5E_VOL_g, align 8
  %46 = load i64, ptr @H5E_CANTREGISTER_g, align 8
  %47 = tail call i32 (ptr, ptr, i32, i64, i64, ptr, ...) @H5E_printf_stack(ptr noundef nonnull @.str.2, ptr noundef nonnull @__func__.H5VL__register_connector_by_class, i32 noundef 1249, i64 noundef %45, i64 noundef %46, ptr noundef nonnull @.str.64) #10
  br label %75

48:                                               ; preds = %41, %38
  store i32 0, ptr %4, align 8
  %49 = getelementptr inbounds i8, ptr %4, i64 8
  store ptr %17, ptr %49, align 8
  %50 = getelementptr inbounds i8, ptr %4, i64 16
  store i64 -1, ptr %50, align 8
  %51 = call i32 @H5I_iterate(i32 noundef 9, ptr noundef nonnull @H5VL__get_connector_cb, ptr noundef nonnull %4, i1 noundef zeroext true) #10
  %52 = icmp slt i32 %51, 0
  br i1 %52, label %53, label %57

53:                                               ; preds = %48
  %54 = load i64, ptr @H5E_VOL_g, align 8
  %55 = load i64, ptr @H5E_BADITER_g, align 8
  %56 = call i32 (ptr, ptr, i32, i64, i64, ptr, ...) @H5E_printf_stack(ptr noundef nonnull @.str.2, ptr noundef nonnull @__func__.H5VL__register_connector_by_class, i32 noundef 1258, i64 noundef %54, i64 noundef %55, ptr noundef nonnull @.str.65) #10
  br label %75

57:                                               ; preds = %48
  %58 = load i64, ptr %50, align 8
  %.not32 = icmp eq i64 %58, -1
  br i1 %.not32, label %68, label %59

59:                                               ; preds = %57
  %60 = call i32 @H5I_inc_ref(i64 noundef %58, i1 noundef zeroext %1) #10
  %61 = icmp slt i32 %60, 0
  br i1 %61, label %62, label %66

62:                                               ; preds = %59
  %63 = load i64, ptr @H5E_VOL_g, align 8
  %64 = load i64, ptr @H5E_CANTINC_g, align 8
  %65 = call i32 (ptr, ptr, i32, i64, i64, ptr, ...) @H5E_printf_stack(ptr noundef nonnull @.str.2, ptr noundef nonnull @__func__.H5VL__register_connector_by_class, i32 noundef 1264, i64 noundef %63, i64 noundef %64, ptr noundef nonnull @.str.44) #10
  br label %75

66:                                               ; preds = %59
  %67 = load i64, ptr %50, align 8
  br label %75

68:                                               ; preds = %57
  %69 = call i64 @H5VL__register_connector(ptr noundef nonnull %0, i1 noundef zeroext %1, i64 noundef %2)
  %70 = icmp slt i64 %69, 0
  br i1 %70, label %71, label %75

71:                                               ; preds = %68
  %72 = load i64, ptr @H5E_VOL_g, align 8
  %73 = load i64, ptr @H5E_CANTREGISTER_g, align 8
  %74 = call i32 (ptr, ptr, i32, i64, i64, ptr, ...) @H5E_printf_stack(ptr noundef nonnull @.str.2, ptr noundef nonnull @__func__.H5VL__register_connector_by_class, i32 noundef 1270, i64 noundef %72, i64 noundef %73, ptr noundef nonnull @.str.66) #10
  br label %75

75:                                               ; preds = %66, %68, %71, %62, %53, %44, %34, %24, %18, %11, %5
  %.0 = phi i64 [ -1, %11 ], [ -1, %24 ], [ -1, %53 ], [ -1, %62 ], [ %67, %66 ], [ -1, %71 ], [ %69, %68 ], [ -1, %44 ], [ -1, %34 ], [ -1, %18 ], [ -1, %5 ]
  ret i64 %.0
}